; ModuleID = 'bench/linux/original/dec_and_lock.ll'
source_filename = "bench/linux/original/dec_and_lock.ll"
target datalayout = "e-m:e-p270:32:32-p271:32:32-p272:64:64-i64:64-i128:128-f80:128-n8:16:32:64-S128"
target triple = "x86_64-unknown-linux-gnu"

module asm ".section \22.export_symbol\22,\22a\22 ; __export_symbol__atomic_dec_and_lock: ; .asciz \22\22 ; .asciz \22\22 ; .balign 8 ; .quad _atomic_dec_and_lock ; .previous"
module asm ".section \22.export_symbol\22,\22a\22 ; __export_symbol__atomic_dec_and_lock_irqsave: ; .asciz \22\22 ; .asciz \22\22 ; .balign 8 ; .quad _atomic_dec_and_lock_irqsave ; .previous"
module asm ".section \22.export_symbol\22,\22a\22 ; __export_symbol__atomic_dec_and_raw_lock: ; .asciz \22\22 ; .asciz \22\22 ; .balign 8 ; .quad _atomic_dec_and_raw_lock ; .previous"
module asm ".section \22.export_symbol\22,\22a\22 ; __export_symbol__atomic_dec_and_raw_lock_irqsave: ; .asciz \22\22 ; .asciz \22\22 ; .balign 8 ; .quad _atomic_dec_and_raw_lock_irqsave ; .previous"

@__UNIQUE_ID___addressable__atomic_dec_and_lock64 = internal global ptr @_atomic_dec_and_lock, section ".discard.addressable", align 8
@__UNIQUE_ID___addressable__atomic_dec_and_lock_irqsave65 = internal global ptr @_atomic_dec_and_lock_irqsave, section ".discard.addressable", align 8
@__UNIQUE_ID___addressable__atomic_dec_and_raw_lock66 = internal global ptr @_atomic_dec_and_raw_lock, section ".discard.addressable", align 8
@__UNIQUE_ID___addressable__atomic_dec_and_raw_lock_irqsave67 = internal global ptr @_atomic_dec_and_raw_lock_irqsave, section ".discard.addressable", align 8
@llvm.compiler.used = appending global [4 x ptr] [ptr @__UNIQUE_ID___addressable__atomic_dec_and_lock64, ptr @__UNIQUE_ID___addressable__atomic_dec_and_lock_irqsave65, ptr @__UNIQUE_ID___addressable__atomic_dec_and_raw_lock66, ptr @__UNIQUE_ID___addressable__atomic_dec_and_raw_lock_irqsave67], section "llvm.metadata"

; Function Attrs: fn_ret_thunk_extern nounwind null_pointer_is_valid
define dso_local noundef i32 @_atomic_dec_and_lock(ptr noundef %0, ptr noundef %1) #0 align 16 {
  %3 = load volatile i32, ptr %0, align 4
  %4 = icmp eq i32 %3, 1
  br i1 %4, label %._crit_edge, label %.lr.ph, !prof !5

.lr.ph:                                           ; preds = %2, %11
  %5 = phi i32 [ %12, %11 ], [ %3, %2 ]
  %6 = add i32 %5, -1
  %7 = tail call { i8, i32 } asm sideeffect ".pushsection .smp_locks,\22a\22\0A.balign 4\0A.long 671f - .\0A.popsection\0A671:\0A\09lock; cmpxchgl $3, $1\0A\09/* output condition code z*/\0A", "={@ccz},=*m,={ax},r,*m,2,~{memory},~{dirflag},~{fpsr},~{flags}"(ptr elementtype(i32) %0, i32 %6, ptr elementtype(i32) %0, i32 %5) #3, !srcloc !6
  %8 = extractvalue { i8, i32 } %7, 0
  %9 = icmp ult i8 %8, 2
  tail call void @llvm.assume(i1 %9)
  %10 = icmp eq i8 %8, 0
  br i1 %10, label %11, label %.loopexit, !prof !7

11:                                               ; preds = %.lr.ph
  %12 = extractvalue { i8, i32 } %7, 1
  %13 = icmp eq i32 %12, 1
  br i1 %13, label %._crit_edge, label %.lr.ph, !prof !8, !llvm.loop !9

._crit_edge:                                      ; preds = %11, %2
  tail call void @_raw_spin_lock(ptr noundef %1) #3
  %14 = tail call i8 asm sideeffect ".pushsection .smp_locks,\22a\22\0A.balign 4\0A.long 671f - .\0A.popsection\0A671:\0A\09lock; decl $0\0A\09/* output condition code e*/\0A", "=*m,={@cce},*m,~{memory},~{dirflag},~{fpsr},~{flags}"(ptr elementtype(i32) %0, ptr elementtype(i32) %0) #3, !srcloc !12
  %15 = icmp ult i8 %14, 2
  tail call void @llvm.assume(i1 %15)
  %16 = icmp eq i8 %14, 0
  br i1 %16, label %17, label %.loopexit

17:                                               ; preds = %._crit_edge
  tail call void @_raw_spin_unlock(ptr noundef %1) #3
  br label %.loopexit

.loopexit:                                        ; preds = %.lr.ph, %17, %._crit_edge
  %18 = phi i32 [ 0, %17 ], [ 1, %._crit_edge ], [ 0, %.lr.ph ]
  ret i32 %18
}

; Function Attrs: fn_ret_thunk_extern nounwind null_pointer_is_valid
define dso_local noundef i32 @_atomic_dec_and_lock_irqsave(ptr noundef %0, ptr noundef %1, ptr nocapture noundef %2) #0 align 16 {
  %4 = load volatile i32, ptr %0, align 4
  %5 = icmp eq i32 %4, 1
  br i1 %5, label %._crit_edge, label %.lr.ph, !prof !5

.lr.ph:                                           ; preds = %3, %12
  %6 = phi i32 [ %13, %12 ], [ %4, %3 ]
  %7 = add i32 %6, -1
  %8 = tail call { i8, i32 } asm sideeffect ".pushsection .smp_locks,\22a\22\0A.balign 4\0A.long 671f - .\0A.popsection\0A671:\0A\09lock; cmpxchgl $3, $1\0A\09/* output condition code z*/\0A", "={@ccz},=*m,={ax},r,*m,2,~{memory},~{dirflag},~{fpsr},~{flags}"(ptr elementtype(i32) %0, i32 %7, ptr elementtype(i32) %0, i32 %6) #3, !srcloc !6
  %9 = extractvalue { i8, i32 } %8, 0
  %10 = icmp ult i8 %9, 2
  tail call void @llvm.assume(i1 %10)
  %11 = icmp eq i8 %9, 0
  br i1 %11, label %12, label %.loopexit, !prof !7

12:                                               ; preds = %.lr.ph
  %13 = extractvalue { i8, i32 } %8, 1
  %14 = icmp eq i32 %13, 1
  br i1 %14, label %._crit_edge, label %.lr.ph, !prof !8, !llvm.loop !9

._crit_edge:                                      ; preds = %12, %3
  %15 = tail call i64 @_raw_spin_lock_irqsave(ptr noundef %1) #3
  store i64 %15, ptr %2, align 8
  %16 = tail call i8 asm sideeffect ".pushsection .smp_locks,\22a\22\0A.balign 4\0A.long 671f - .\0A.popsection\0A671:\0A\09lock; decl $0\0A\09/* output condition code e*/\0A", "=*m,={@cce},*m,~{memory},~{dirflag},~{fpsr},~{flags}"(ptr elementtype(i32) %0, ptr elementtype(i32) %0) #3, !srcloc !12
  %17 = icmp ult i8 %16, 2
  tail call void @llvm.assume(i1 %17)
  %18 = icmp eq i8 %16, 0
  br i1 %18, label %19, label %.loopexit

19:                                               ; preds = %._crit_edge
  %20 = load i64, ptr %2, align 8
  tail call void @_raw_spin_unlock_irqrestore(ptr noundef %1, i64 noundef %20) #3
  br label %.loopexit

.loopexit:                                        ; preds = %.lr.ph, %19, %._crit_edge
  %21 = phi i32 [ 0, %19 ], [ 1, %._crit_edge ], [ 0, %.lr.ph ]
  ret i32 %21
}

; Function Attrs: null_pointer_is_valid
declare dso_local i64 @_raw_spin_lock_irqsave(ptr noundef) local_unnamed_addr #1 section ".spinlock.text"

; Function Attrs: fn_ret_thunk_extern nounwind null_pointer_is_valid
define dso_local noundef i32 @_atomic_dec_and_raw_lock(ptr noundef %0, ptr noundef %1) #0 align 16 {
  %3 = load volatile i32, ptr %0, align 4
  %4 = icmp eq i32 %3, 1
  br i1 %4, label %._crit_edge, label %.lr.ph, !prof !5

.lr.ph:                                           ; preds = %2, %11
  %5 = phi i32 [ %12, %11 ], [ %3, %2 ]
  %6 = add i32 %5, -1
  %7 = tail call { i8, i32 } asm sideeffect ".pushsection .smp_locks,\22a\22\0A.balign 4\0A.long 671f - .\0A.popsection\0A671:\0A\09lock; cmpxchgl $3, $1\0A\09/* output condition code z*/\0A", "={@ccz},=*m,={ax},r,*m,2,~{memory},~{dirflag},~{fpsr},~{flags}"(ptr elementtype(i32) %0, i32 %6, ptr elementtype(i32) %0, i32 %5) #3, !srcloc !6
  %8 = extractvalue { i8, i32 } %7, 0
  %9 = icmp ult i8 %8, 2
  tail call void @llvm.assume(i1 %9)
  %10 = icmp eq i8 %8, 0
  br i1 %10, label %11, label %.loopexit, !prof !7

11:                                               ; preds = %.lr.ph
  %12 = extractvalue { i8, i32 } %7, 1
  %13 = icmp eq i32 %12, 1
  br i1 %13, label %._crit_edge, label %.lr.ph, !prof !8, !llvm.loop !9

._crit_edge:                                      ; preds = %11, %2
  tail call void @_raw_spin_lock(ptr noundef %1) #3
  %14 = tail call i8 asm sideeffect ".pushsection .smp_locks,\22a\22\0A.balign 4\0A.long 671f - .\0A.popsection\0A671:\0A\09lock; decl $0\0A\09/* output condition code e*/\0A", "=*m,={@cce},*m,~{memory},~{dirflag},~{fpsr},~{flags}"(ptr elementtype(i32) %0, ptr elementtype(i32) %0) #3, !srcloc !12
  %15 = icmp ult i8 %14, 2
  tail call void @llvm.assume(i1 %15)
  %16 = icmp eq i8 %14, 0
  br i1 %16, label %17, label %.loopexit

17:                                               ; preds = %._crit_edge
  tail call void @_raw_spin_unlock(ptr noundef %1) #3
  br label %.loopexit

.loopexit:                                        ; preds = %.lr.ph, %17, %._crit_edge
  %18 = phi i32 [ 0, %17 ], [ 1, %._crit_edge ], [ 0, %.lr.ph ]
  ret i32 %18
}

; Function Attrs: null_pointer_is_valid
declare dso_local void @_raw_spin_lock(ptr noundef) local_unnamed_addr #1 section ".spinlock.text"

; Function Attrs: null_pointer_is_valid
declare dso_local void @_raw_spin_unlock(ptr noundef) local_unnamed_addr #1 section ".spinlock.text"

; Function Attrs: fn_ret_thunk_extern nounwind null_pointer_is_valid
define dso_local noundef i32 @_atomic_dec_and_raw_lock_irqsave(ptr noundef %0, ptr noundef %1, ptr nocapture noundef %2) #0 align 16 {
  %4 = load volatile i32, ptr %0, align 4
  %5 = icmp eq i32 %4, 1
  br i1 %5, label %._crit_edge, label %.lr.ph, !prof !5

.lr.ph:                                           ; preds = %3, %12
  %6 = phi i32 [ %13, %12 ], [ %4, %3 ]
  %7 = add i32 %6, -1
  %8 = tail call { i8, i32 } asm sideeffect ".pushsection .smp_locks,\22a\22\0A.balign 4\0A.long 671f - .\0A.popsection\0A671:\0A\09lock; cmpxchgl $3, $1\0A\09/* output condition code z*/\0A", "={@ccz},=*m,={ax},r,*m,2,~{memory},~{dirflag},~{fpsr},~{flags}"(ptr elementtype(i32) %0, i32 %7, ptr elementtype(i32) %0, i32 %6) #3, !srcloc !6
  %9 = extractvalue { i8, i32 } %8, 0
  %10 = icmp ult i8 %9, 2
  tail call void @llvm.assume(i1 %10)
  %11 = icmp eq i8 %9, 0
  br i1 %11, label %12, label %.loopexit, !prof !7

12:                                               ; preds = %.lr.ph
  %13 = extractvalue { i8, i32 } %8, 1
  %14 = icmp eq i32 %13, 1
  br i1 %14, label %._crit_edge, label %.lr.ph, !prof !8, !llvm.loop !9

._crit_edge:                                      ; preds = %12, %3
  %15 = tail call i64 @_raw_spin_lock_irqsave(ptr noundef %1) #3
  store i64 %15, ptr %2, align 8
  %16 = tail call i8 asm sideeffect ".pushsection .smp_locks,\22a\22\0A.balign 4\0A.long 671f - .\0A.popsection\0A671:\0A\09lock; decl $0\0A\09/* output condition code e*/\0A", "=*m,={@cce},*m,~{memory},~{dirflag},~{fpsr},~{flags}"(ptr elementtype(i32) %0, ptr elementtype(i32) %0) #3, !srcloc !12
  %17 = icmp ult i8 %16, 2
  tail call void @llvm.assume(i1 %17)
  %18 = icmp eq i8 %16, 0
  br i1 %18, label %19, label %.loopexit

19:                                               ; preds = %._crit_edge
  %20 = load i64, ptr %2, align 8
  tail call void @_raw_spin_unlock_irqrestore(ptr noundef %1, i64 noundef %20) #3
  br label %.loopexit

.loopexit:                                        ; preds = %.lr.ph, %19, %._crit_edge
  %21 = phi i32 [ 0, %19 ], [ 1, %._crit_edge ], [ 0, %.lr.ph ]
  ret i32 %21
}

; Function Attrs: null_pointer_is_valid
declare dso_local void @_raw_spin_unlock_irqrestore(ptr noundef, i64 noundef) local_unnamed_addr #1 section ".spinlock.text"

; Function Attrs: mustprogress nocallback nofree nosync nounwind willreturn memory(inaccessiblemem: write)
declare void @llvm.assume(i1 noundef) #2


!llvm.module.flags = !{!0, !1, !2, !3, !4}

!0 = !{i32 1, !"wchar_size", i32 2}
!1 = !{i32 8, !"cf-protection-branch", i32 1}
!2 = !{i32 4, !"function_return_thunk_extern", i32 1}
!3 = !{i32 4, !"indirect_branch_cs_prefix", i32 1}
!4 = !{i32 4, !"SkipRaxSetup", i32 1}
!5 = !{!"branch_weights", i32 1, i32 127}
!6 = !{i64 2148759335, i64 2148759374, i64 2148759395, i64 2148759432, i64 2148759455, i64 2148759464, i64 2148759762}
!7 = !{!"branch_weights", i32 1, i32 2000}
!8 = !{!"branch_weights", i32 127, i32 255873}
!9 = distinct !{!9, !10, !11}
!10 = !{!"llvm.loop.mustprogress"}
!11 = !{!"llvm.loop.unroll.disable"}
!12 = !{i64 2148743067, i64 2148743106, i64 2148743127, i64 2148743164, i64 2148743187, i64 2148743196, i64 2148743270}
